(dp0
S'function'
p1
NsS'calledPtrs'
p2
(lp3
sS'overwriteableVars'
p4
(lp5
I44
aS'return_address'
p6
asS'inpType'
p7
S'stdin'
p8
sS'address'
p9
NsS'writeSize'
p10
NsS'type'
p11
S'stack'
p12
sS'checks'
p13
(lp14
sS'callingFunction'
p15
Ns.